target datalayout = "e-m:e-p270:32:32-p271:32:32-p272:64:64-i64:64-i128:128-f80:128-n8:16:32:64-S128"
target triple = "x86_64-pc-linux-gnu"

%struct.__va_list_tag = type { i32, i32, ptr, ptr }

; Function Attrs: nounwind uwtable
define dso_local void @append_stat(ptr noundef %0, ptr noundef %1, ptr noundef %2, ptr noundef %3, ...) #0 {
  %5 = alloca ptr, align 8
  %6 = alloca ptr, align 8
  %7 = alloca ptr, align 8
  %8 = alloca ptr, align 8
  %9 = alloca [128 x i8], align 16
  %10 = alloca i32, align 4
  %11 = alloca [1 x %struct.__va_list_tag], align 16
  store ptr %0, ptr %5, align 8, !tbaa !29
  store ptr %1, ptr %6, align 8, !tbaa !68
  store ptr %2, ptr %7, align 8, !tbaa !10
  store ptr %3, ptr %8, align 8, !tbaa !29
  call void @llvm.lifetime.start.p0(i64 128, ptr %9) #15
  call void @llvm.lifetime.start.p0(i64 4, ptr %10) #15
  call void @llvm.lifetime.start.p0(i64 24, ptr %11) #15
  %12 = getelementptr inbounds [1 x %struct.__va_list_tag], ptr %11, i64 0, i64 0
  call void @llvm.va_start.p0(ptr %12)
  %13 = getelementptr inbounds [128 x i8], ptr %9, i64 0, i64 0
  %14 = load ptr, ptr %8, align 8, !tbaa !29
  %15 = getelementptr inbounds [1 x %struct.__va_list_tag], ptr %11, i64 0, i64 0
  %16 = call i32 @vsnprintf(ptr noundef %13, i64 noundef 127, ptr noundef %14, ptr noundef %15) #15
  store i32 %16, ptr %10, align 4, !tbaa !8
  %17 = getelementptr inbounds [1 x %struct.__va_list_tag], ptr %11, i64 0, i64 0
  call void @llvm.va_end.p0(ptr %17)
  %18 = load ptr, ptr %6, align 8, !tbaa !68
  %19 = load ptr, ptr %5, align 8, !tbaa !29
  %20 = load ptr, ptr %5, align 8, !tbaa !29
  %21 = call i64 @strlen(ptr noundef %20) #18
  %22 = trunc i64 %21 to i16
  %23 = getelementptr inbounds [128 x i8], ptr %9, i64 0, i64 0
  %24 = load i32, ptr %10, align 4, !tbaa !8
  %25 = load ptr, ptr %7, align 8, !tbaa !10
  call void %18(ptr noundef %19, i16 noundef zeroext %22, ptr noundef %23, i32 noundef %24, ptr noundef %25)
  call void @llvm.lifetime.end.p0(i64 24, ptr %11) #15
  call void @llvm.lifetime.end.p0(i64 4, ptr %10) #15
  call void @llvm.lifetime.end.p0(i64 128, ptr %9) #15
  ret void
}