; Function Attrs: nounwind uwtable
define dso_local void @append_stat(ptr noundef %0, ptr noundef readonly captures(none) %1, ptr noundef %2, ptr noundef readonly captures(none) %3, ...) local_unnamed_addr #1 {
  %5 = alloca [128 x i8], align 16
  %6 = alloca [1 x %struct.__va_list_tag], align 16
  call void @llvm.lifetime.start.p0(i64 128, ptr nonnull %5) #34
  call void @llvm.lifetime.start.p0(i64 24, ptr nonnull %6) #34
  call void @llvm.va_start.p0(ptr nonnull %6)
  %7 = call i32 @vsnprintf(ptr noundef nonnull %5, i64 noundef 127, ptr noundef %3, ptr noundef nonnull %6) #34
  call void @llvm.va_end.p0(ptr nonnull %6)
  %8 = call i64 @strlen(ptr noundef nonnull dereferenceable(1) %0) #42
  %9 = trunc i64 %8 to i16
  call void %1(ptr noundef nonnull %0, i16 noundef zeroext %9, ptr noundef nonnull %5, i32 noundef %7, ptr noundef %2) #34
  call void @llvm.lifetime.end.p0(i64 24, ptr nonnull %6) #34
  call void @llvm.lifetime.end.p0(i64 128, ptr nonnull %5) #34
  ret void
}